; Function Attrs: mustprogress nofree norecurse nosync nounwind willreturn memory(argmem: write) uwtable
define void @_ZN2mu14ParserCallbackC2EPFdddEbiNS_18EOprtAssociativityE(ptr noundef nonnull writeonly align 8 captures(none) dereferenceable(32) initializes((0, 29)) %0, ptr noundef %1, i1 noundef zeroext %2, i32 noundef %3, i32 noundef %4) unnamed_addr #6 align 2 {
  %6 = zext i1 %2 to i8
  store ptr %1, ptr %0, align 8, !tbaa !4
  %7 = getelementptr inbounds nuw i8, ptr %0, i64 8
  store i32 2, ptr %7, align 8, !tbaa !14
  %8 = getelementptr inbounds nuw i8, ptr %0, i64 12
  store i32 %3, ptr %8, align 4, !tbaa !15
  %9 = getelementptr inbounds nuw i8, ptr %0, i64 16
  store i32 %4, ptr %9, align 8, !tbaa !16
  %10 = getelementptr inbounds nuw i8, ptr %0, i64 20
  store i32 30, ptr %10, align 4, !tbaa !17
  %11 = getelementptr inbounds nuw i8, ptr %0, i64 24
  store i32 1, ptr %11, align 8, !tbaa !18
  %12 = getelementptr inbounds nuw i8, ptr %0, i64 28
  store i8 %6, ptr %12, align 4, !tbaa !19
  ret void
}